; Function Attrs: mustprogress uwtable
define void @_ZN2cv32createNormHistogramCostExtractorEiif(ptr dead_on_unwind noalias writable sret(%"struct.cv::Ptr") align 8 %0, i32 noundef %1, i32 noundef %2, float noundef %3) local_unnamed_addr #3 personality ptr @__gxx_personality_v0 {
  %5 = tail call noalias noundef nonnull dereferenceable(56) ptr @_Znwm(i64 noundef 56) #15
  invoke void @_ZN2cv9AlgorithmC2Ev(ptr noundef nonnull align 8 dereferenceable(8) %5)
          to label %.noexc unwind label %14

.noexc:                                           ; preds = %4
  store ptr getelementptr inbounds inrange(-16, 120) (i8, ptr @_ZTVN2cv30NormHistogramCostExtractorImplE, i64 16), ptr %5, align 8
  %6 = getelementptr inbounds i8, ptr %5, i64 24
  tail call void @_ZNSt7__cxx1112basic_stringIcSt11char_traitsIcESaIcEEC1Ev(ptr noundef nonnull align 8 dereferenceable(32) %6) #13
  %7 = getelementptr inbounds i8, ptr %5, i64 8
  store i32 %1, ptr %7, align 8
  %8 = getelementptr inbounds i8, ptr %5, i64 12
  store i32 %2, ptr %8, align 4
  %9 = getelementptr inbounds i8, ptr %5, i64 16
  store float %3, ptr %9, align 8
  %10 = invoke noundef nonnull align 8 dereferenceable(32) ptr @_ZNSt7__cxx1112basic_stringIcSt11char_traitsIcESaIcEEaSEPKc(ptr noundef nonnull align 8 dereferenceable(32) %6, ptr noundef nonnull @.str.5)
          to label %_ZN2cv30NormHistogramCostExtractorImplC2Eiif.exit unwind label %11

11:                                               ; preds = %.noexc
  %12 = landingpad { ptr, i32 }
          cleanup
  tail call void @_ZNSt7__cxx1112basic_stringIcSt11char_traitsIcESaIcEED1Ev(ptr noundef nonnull align 8 dereferenceable(32) %6) #13
  tail call void @_ZN2cv9AlgorithmD2Ev(ptr noundef nonnull align 8 dereferenceable(8) %5) #13
  br label %.body

_ZN2cv30NormHistogramCostExtractorImplC2Eiif.exit: ; preds = %.noexc
  store ptr %5, ptr %0, align 8
  %13 = getelementptr inbounds i8, ptr %0, i64 8
  tail call void @_ZNSt14__shared_countILN9__gnu_cxx12_Lock_policyE2EEC2IPN2cv30NormHistogramCostExtractorImplEEET_(ptr noundef nonnull align 8 dereferenceable(8) %13, ptr noundef nonnull %5)
  ret void

14:                                               ; preds = %4
  %15 = landingpad { ptr, i32 }
          cleanup
  br label %.body

.body:                                            ; preds = %11, %14
  %eh.lpad-body = phi { ptr, i32 } [ %15, %14 ], [ %12, %11 ]
  tail call void @_ZdlPv(ptr noundef nonnull %5) #16
  resume { ptr, i32 } %eh.lpad-body
}